; Function Attrs: null_pointer_is_valid sspstrong uwtable
define internal i32 @dissect_error_status_t(ptr noundef %0, i32 noundef %1, ptr noundef %2, ptr noundef %3, ptr noundef %4, ptr noundef %5) #0 {
  %7 = alloca ptr, align 8
  %8 = alloca i32, align 4
  call void @llvm.lifetime.start.p0(i64 8, ptr nonnull %7) #3
  call void @llvm.lifetime.start.p0(i64 4, ptr nonnull %8) #3
  %9 = getelementptr inbounds nuw i8, ptr %4, i64 25
  %10 = load i8, ptr %9, align 1, !range !6, !noundef !7
  %11 = trunc nuw i8 %10 to i1
  br i1 %11, label %23, label %12

12:                                               ; preds = %6
  %13 = load i32, ptr @ett_error_status_t, align 4
  %14 = call ptr @proto_tree_add_subtree(ptr noundef %3, ptr noundef %0, i32 noundef %1, i32 noundef -1, i32 noundef %13, ptr noundef nonnull %7, ptr noundef nonnull @.str.68)
  %15 = load i32, ptr @hf_error_status_t, align 4
  %16 = call i32 @dissect_ndr_uint32(ptr noundef %0, i32 noundef %1, ptr noundef %2, ptr noundef %14, ptr noundef %4, ptr noundef %5, i32 noundef %15, ptr noundef nonnull %8)
  %17 = load i32, ptr %8, align 4
  %18 = call ptr @val_to_str_ext(i32 noundef %17, ptr noundef nonnull @dce_error_vals_ext, ptr noundef nonnull @.str.69)
  %19 = getelementptr inbounds nuw i8, ptr %2, i64 8
  %20 = load ptr, ptr %19, align 8
  call void (ptr, i32, ptr, ...) @col_append_fstr(ptr noundef %20, i32 noundef 25, ptr noundef nonnull @.str.70, ptr noundef %18)
  %21 = load ptr, ptr %7, align 8
  %22 = sub i32 %16, %1
  call void @proto_item_set_len(ptr noundef %21, i32 noundef %22)
  br label %23

23:                                               ; preds = %6, %12
  %.0 = phi i32 [ %16, %12 ], [ %1, %6 ]
  call void @llvm.lifetime.end.p0(i64 4, ptr nonnull %8) #3
  call void @llvm.lifetime.end.p0(i64 8, ptr nonnull %7) #3
  ret i32 %.0
}